target datalayout = "e-m:e-p270:32:32-p271:32:32-p272:64:64-i64:64-i128:128-f80:128-n8:16:32:64-S128"
target triple = "x86_64-pc-linux-gnu"

%struct.resv_desc_msg = type { ptr, ptr, ptr, i32, i32, i64, ptr, i64, ptr, ptr, ptr, i32, ptr, i32, ptr, ptr, i32, i64, i64, ptr, ptr }

; Function Attrs: nounwind uwtable
define dso_local void @slurm_free_resv_desc_msg_part(ptr noundef %0, i32 noundef %1) #0 {
  %3 = alloca ptr, align 8
  %4 = alloca i32, align 4
  store ptr %0, ptr %3, align 8
  store i32 %1, ptr %4, align 4
  %5 = load ptr, ptr %3, align 8
  %6 = icmp ne ptr %5, null
  br i1 %6, label %8, label %7

7:                                                ; preds = %2
  br label %72

8:                                                ; preds = %2
  %9 = load i32, ptr %4, align 4
  %10 = zext i32 %9 to i64
  %11 = and i64 %10, 1
  %12 = icmp ne i64 %11, 0
  br i1 %12, label %13, label %16

13:                                               ; preds = %8
  %14 = load ptr, ptr %3, align 8
  %15 = getelementptr inbounds nuw %struct.resv_desc_msg, ptr %14, i32 0, i32 20
  call void @slurm_xfree(ptr noundef %15)
  br label %16

16:                                               ; preds = %13, %8
  %17 = load i32, ptr %4, align 4
  %18 = zext i32 %17 to i64
  %19 = and i64 %18, 2
  %20 = icmp ne i64 %19, 0
  br i1 %20, label %21, label %24

21:                                               ; preds = %16
  %22 = load ptr, ptr %3, align 8
  %23 = getelementptr inbounds nuw %struct.resv_desc_msg, ptr %22, i32 0, i32 0
  call void @slurm_xfree(ptr noundef %23)
  br label %24

24:                                               ; preds = %21, %16
  %25 = load i32, ptr %4, align 4
  %26 = zext i32 %25 to i64
  %27 = and i64 %26, 4
  %28 = icmp ne i64 %27, 0
  br i1 %28, label %29, label %32

29:                                               ; preds = %24
  %30 = load ptr, ptr %3, align 8
  %31 = getelementptr inbounds nuw %struct.resv_desc_msg, ptr %30, i32 0, i32 1
  call void @slurm_xfree(ptr noundef %31)
  br label %32

32:                                               ; preds = %29, %24
  %33 = load i32, ptr %4, align 4
  %34 = zext i32 %33 to i64
  %35 = and i64 %34, 128
  %36 = icmp ne i64 %35, 0
  br i1 %36, label %37, label %40

37:                                               ; preds = %32
  %38 = load ptr, ptr %3, align 8
  %39 = getelementptr inbounds nuw %struct.resv_desc_msg, ptr %38, i32 0, i32 2
  call void @slurm_xfree(ptr noundef %39)
  br label %40

40:                                               ; preds = %37, %32
  %41 = load i32, ptr %4, align 4
  %42 = zext i32 %41 to i64
  %43 = and i64 %42, 16
  %44 = icmp ne i64 %43, 0
  br i1 %44, label %45, label %48

45:                                               ; preds = %40
  %46 = load ptr, ptr %3, align 8
  %47 = getelementptr inbounds nuw %struct.resv_desc_msg, ptr %46, i32 0, i32 10
  call void @slurm_xfree(ptr noundef %47)
  br label %48

48:                                               ; preds = %45, %40
  %49 = load i32, ptr %4, align 4
  %50 = zext i32 %49 to i64
  %51 = and i64 %50, 64
  %52 = icmp ne i64 %51, 0
  br i1 %52, label %53, label %56

53:                                               ; preds = %48
  %54 = load ptr, ptr %3, align 8
  %55 = getelementptr inbounds nuw %struct.resv_desc_msg, ptr %54, i32 0, i32 8
  call void @slurm_xfree(ptr noundef %55)
  br label %56

56:                                               ; preds = %53, %48
  %57 = load i32, ptr %4, align 4
  %58 = zext i32 %57 to i64
  %59 = and i64 %58, 256
  %60 = icmp ne i64 %59, 0
  br i1 %60, label %61, label %64

61:                                               ; preds = %56
  %62 = load ptr, ptr %3, align 8
  %63 = getelementptr inbounds nuw %struct.resv_desc_msg, ptr %62, i32 0, i32 14
  call void @slurm_xfree(ptr noundef %63)
  br label %64

64:                                               ; preds = %61, %56
  %65 = load i32, ptr %4, align 4
  %66 = zext i32 %65 to i64
  %67 = and i64 %66, 512
  %68 = icmp ne i64 %67, 0
  br i1 %68, label %69, label %72

69:                                               ; preds = %64
  %70 = load ptr, ptr %3, align 8
  %71 = getelementptr inbounds nuw %struct.resv_desc_msg, ptr %70, i32 0, i32 19
  call void @slurm_xfree(ptr noundef %71)
  br label %72

72:                                               ; preds = %7, %69, %64
  ret void
}