; Function Attrs: nounwind uwtable
define dso_local void @slurm_free_resv_desc_msg_part(ptr noundef %0, i32 noundef %1) local_unnamed_addr #1 {
  %.not = icmp eq ptr %0, null
  br i1 %.not, label %35, label %3

3:                                                ; preds = %2
  %4 = zext i32 %1 to i64
  %5 = and i64 %4, 1
  %.not16 = icmp eq i64 %5, 0
  br i1 %.not16, label %8, label %6

6:                                                ; preds = %3
  %7 = getelementptr inbounds nuw i8, ptr %0, i64 152
  tail call void @slurm_xfree(ptr noundef nonnull %7) #24
  br label %8

8:                                                ; preds = %6, %3
  %9 = and i64 %4, 2
  %.not17 = icmp eq i64 %9, 0
  br i1 %.not17, label %11, label %10

10:                                               ; preds = %8
  tail call void @slurm_xfree(ptr noundef nonnull %0) #24
  br label %11

11:                                               ; preds = %10, %8
  %12 = and i64 %4, 4
  %.not18 = icmp eq i64 %12, 0
  br i1 %.not18, label %15, label %13

13:                                               ; preds = %11
  %14 = getelementptr inbounds nuw i8, ptr %0, i64 8
  tail call void @slurm_xfree(ptr noundef nonnull %14) #24
  br label %15

15:                                               ; preds = %13, %11
  %16 = and i64 %4, 128
  %.not19 = icmp eq i64 %16, 0
  br i1 %.not19, label %19, label %17

17:                                               ; preds = %15
  %18 = getelementptr inbounds nuw i8, ptr %0, i64 16
  tail call void @slurm_xfree(ptr noundef nonnull %18) #24
  br label %19

19:                                               ; preds = %17, %15
  %20 = and i64 %4, 16
  %.not20 = icmp eq i64 %20, 0
  br i1 %.not20, label %23, label %21

21:                                               ; preds = %19
  %22 = getelementptr inbounds nuw i8, ptr %0, i64 72
  tail call void @slurm_xfree(ptr noundef nonnull %22) #24
  br label %23

23:                                               ; preds = %21, %19
  %24 = and i64 %4, 64
  %.not21 = icmp eq i64 %24, 0
  br i1 %.not21, label %27, label %25

25:                                               ; preds = %23
  %26 = getelementptr inbounds nuw i8, ptr %0, i64 56
  tail call void @slurm_xfree(ptr noundef nonnull %26) #24
  br label %27

27:                                               ; preds = %25, %23
  %28 = and i64 %4, 256
  %.not22 = icmp eq i64 %28, 0
  br i1 %.not22, label %31, label %29

29:                                               ; preds = %27
  %30 = getelementptr inbounds nuw i8, ptr %0, i64 104
  tail call void @slurm_xfree(ptr noundef nonnull %30) #24
  br label %31

31:                                               ; preds = %29, %27
  %32 = and i64 %4, 512
  %.not23 = icmp eq i64 %32, 0
  br i1 %.not23, label %35, label %33

33:                                               ; preds = %31
  %34 = getelementptr inbounds nuw i8, ptr %0, i64 144
  tail call void @slurm_xfree(ptr noundef nonnull %34) #24
  br label %35

35:                                               ; preds = %2, %33, %31
  ret void
}